; Function Attrs: nounwind uwtable
define ptr @l_Lean_Elab_elabTerminationHints___rarg___lambda__16(ptr noundef %0, ptr noundef %1, ptr noundef %2, ptr noundef %3, ptr noundef %4, ptr readnone captures(none) %5, ptr noundef %6) local_unnamed_addr #1 {
  %8 = ptrtoint ptr %0 to i64
  %9 = and i64 %8, 1
  %.not = icmp eq i64 %9, 0
  br i1 %.not, label %10, label %lean_inc.exit41

10:                                               ; preds = %7
  %.val.i = load i32, ptr %0, align 4, !tbaa !4
  %11 = icmp sgt i32 %.val.i, 0
  br i1 %11, label %12, label %14, !prof !9

12:                                               ; preds = %10
  %13 = add nuw i32 %.val.i, 1
  store i32 %13, ptr %0, align 4, !tbaa !4
  br label %lean_inc.exit41

14:                                               ; preds = %10
  %.not.i58 = icmp eq i32 %.val.i, 0
  br i1 %.not.i58, label %lean_inc.exit41, label %15

15:                                               ; preds = %14
  tail call void @lean_inc_ref_cold(ptr noundef nonnull %0) #8
  br label %lean_inc.exit41

lean_inc.exit41:                                  ; preds = %15, %14, %12, %7
  %16 = tail call zeroext i8 @l_Lean_Syntax_matchesNull(ptr noundef %0, ptr noundef nonnull inttoptr (i64 5 to ptr)) #8
  %17 = icmp eq i8 %16, 0
  br i1 %17, label %18, label %45

18:                                               ; preds = %lean_inc.exit41
  %19 = ptrtoint ptr %4 to i64
  %20 = and i64 %19, 1
  %.not66 = icmp eq i64 %20, 0
  br i1 %.not66, label %21, label %lean_dec.exit40

21:                                               ; preds = %18
  %22 = load i32, ptr %4, align 4, !tbaa !4
  %23 = icmp sgt i32 %22, 1
  br i1 %23, label %24, label %26, !prof !9

24:                                               ; preds = %21
  %25 = add nsw i32 %22, -1
  store i32 %25, ptr %4, align 4, !tbaa !4
  br label %lean_dec.exit40

26:                                               ; preds = %21
  %.not.i = icmp eq i32 %22, 0
  br i1 %.not.i, label %lean_dec.exit40, label %27

27:                                               ; preds = %26
  tail call void @lean_dec_ref_cold(ptr noundef nonnull %4) #8
  br label %lean_dec.exit40

lean_dec.exit40:                                  ; preds = %27, %26, %24, %18
  %28 = ptrtoint ptr %3 to i64
  %29 = and i64 %28, 1
  %.not67 = icmp eq i64 %29, 0
  br i1 %.not67, label %30, label %lean_dec.exit39

30:                                               ; preds = %lean_dec.exit40
  %31 = load i32, ptr %3, align 4, !tbaa !4
  %32 = icmp sgt i32 %31, 1
  br i1 %32, label %33, label %35, !prof !9

33:                                               ; preds = %30
  %34 = add nsw i32 %31, -1
  store i32 %34, ptr %3, align 4, !tbaa !4
  br label %lean_dec.exit39

35:                                               ; preds = %30
  %.not.i42 = icmp eq i32 %31, 0
  br i1 %.not.i42, label %lean_dec.exit39, label %36

36:                                               ; preds = %35
  tail call void @lean_dec_ref_cold(ptr noundef nonnull %3) #8
  br label %lean_dec.exit39

lean_dec.exit39:                                  ; preds = %36, %35, %33, %lean_dec.exit40
  br i1 %.not, label %37, label %lean_dec.exit38

37:                                               ; preds = %lean_dec.exit39
  %38 = load i32, ptr %0, align 4, !tbaa !4
  %39 = icmp sgt i32 %38, 1
  br i1 %39, label %40, label %42, !prof !9

40:                                               ; preds = %37
  %41 = add nsw i32 %38, -1
  store i32 %41, ptr %0, align 4, !tbaa !4
  br label %lean_dec.exit38

42:                                               ; preds = %37
  %.not.i44 = icmp eq i32 %38, 0
  br i1 %.not.i44, label %lean_dec.exit38, label %43

43:                                               ; preds = %42
  tail call void @lean_dec_ref_cold(ptr noundef nonnull %0) #8
  br label %lean_dec.exit38

lean_dec.exit38:                                  ; preds = %43, %42, %40, %lean_dec.exit39
  %44 = tail call ptr @lean_apply_2(ptr noundef %1, ptr noundef %6, ptr noundef %2) #8
  br label %111

45:                                               ; preds = %lean_inc.exit41
  %46 = ptrtoint ptr %1 to i64
  %47 = and i64 %46, 1
  %.not62 = icmp eq i64 %47, 0
  br i1 %.not62, label %48, label %lean_dec.exit37

48:                                               ; preds = %45
  %49 = load i32, ptr %1, align 4, !tbaa !4
  %50 = icmp sgt i32 %49, 1
  br i1 %50, label %51, label %53, !prof !9

51:                                               ; preds = %48
  %52 = add nsw i32 %49, -1
  store i32 %52, ptr %1, align 4, !tbaa !4
  br label %lean_dec.exit37

53:                                               ; preds = %48
  %.not.i46 = icmp eq i32 %49, 0
  br i1 %.not.i46, label %lean_dec.exit37, label %54

54:                                               ; preds = %53
  tail call void @lean_dec_ref_cold(ptr noundef nonnull %1) #8
  br label %lean_dec.exit37

lean_dec.exit37:                                  ; preds = %54, %53, %51, %45
  %55 = tail call ptr @l_Lean_Syntax_getArg(ptr noundef %0, ptr noundef nonnull inttoptr (i64 1 to ptr)) #8
  br i1 %.not, label %56, label %lean_dec.exit36

56:                                               ; preds = %lean_dec.exit37
  %57 = load i32, ptr %0, align 4, !tbaa !4
  %58 = icmp sgt i32 %57, 1
  br i1 %58, label %59, label %61, !prof !9

59:                                               ; preds = %56
  %60 = add nsw i32 %57, -1
  store i32 %60, ptr %0, align 4, !tbaa !4
  br label %lean_dec.exit36

61:                                               ; preds = %56
  %.not.i48 = icmp eq i32 %57, 0
  br i1 %.not.i48, label %lean_dec.exit36, label %62

62:                                               ; preds = %61
  tail call void @lean_dec_ref_cold(ptr noundef nonnull %0) #8
  br label %lean_dec.exit36

lean_dec.exit36:                                  ; preds = %62, %61, %59, %lean_dec.exit37
  %63 = ptrtoint ptr %55 to i64
  %64 = and i64 %63, 1
  %.not63 = icmp eq i64 %64, 0
  br i1 %.not63, label %65, label %lean_inc.exit.thread

65:                                               ; preds = %lean_dec.exit36
  %.val.i59 = load i32, ptr %55, align 4, !tbaa !4
  %66 = icmp sgt i32 %.val.i59, 0
  br i1 %66, label %67, label %69, !prof !9

67:                                               ; preds = %65
  %68 = add nuw i32 %.val.i59, 1
  store i32 %68, ptr %55, align 4, !tbaa !4
  br label %lean_inc.exit

69:                                               ; preds = %65
  %.not.i60 = icmp eq i32 %.val.i59, 0
  br i1 %.not.i60, label %lean_inc.exit, label %70

70:                                               ; preds = %69
  tail call void @lean_inc_ref_cold(ptr noundef nonnull %55) #8
  br label %lean_inc.exit

lean_inc.exit:                                    ; preds = %70, %69, %67
  %71 = tail call zeroext i8 @l_Lean_Syntax_matchesNull(ptr noundef nonnull %55, ptr noundef nonnull inttoptr (i64 1 to ptr)) #8
  %72 = icmp eq i8 %71, 0
  br i1 %72, label %75, label %94

lean_inc.exit.thread:                             ; preds = %lean_dec.exit36
  %73 = tail call zeroext i8 @l_Lean_Syntax_matchesNull(ptr noundef %55, ptr noundef nonnull inttoptr (i64 1 to ptr)) #8
  %74 = icmp eq i8 %73, 0
  br i1 %74, label %75, label %lean_dec.exit33

75:                                               ; preds = %lean_inc.exit.thread, %lean_inc.exit
  %76 = ptrtoint ptr %4 to i64
  %77 = and i64 %76, 1
  %.not65 = icmp eq i64 %77, 0
  br i1 %.not65, label %78, label %lean_dec.exit35

78:                                               ; preds = %75
  %79 = load i32, ptr %4, align 4, !tbaa !4
  %80 = icmp sgt i32 %79, 1
  br i1 %80, label %81, label %83, !prof !9

81:                                               ; preds = %78
  %82 = add nsw i32 %79, -1
  store i32 %82, ptr %4, align 4, !tbaa !4
  br label %lean_dec.exit35

83:                                               ; preds = %78
  %.not.i50 = icmp eq i32 %79, 0
  br i1 %.not.i50, label %lean_dec.exit35, label %84

84:                                               ; preds = %83
  tail call void @lean_dec_ref_cold(ptr noundef nonnull %4) #8
  br label %lean_dec.exit35

lean_dec.exit35:                                  ; preds = %84, %83, %81, %75
  %85 = tail call ptr @l_Lean_Syntax_getArgs(ptr noundef %55) #8
  br i1 %.not63, label %86, label %lean_dec.exit34

86:                                               ; preds = %lean_dec.exit35
  %87 = load i32, ptr %55, align 4, !tbaa !4
  %88 = icmp sgt i32 %87, 1
  br i1 %88, label %89, label %91, !prof !9

89:                                               ; preds = %86
  %90 = add nsw i32 %87, -1
  store i32 %90, ptr %55, align 4, !tbaa !4
  br label %lean_dec.exit34

91:                                               ; preds = %86
  %.not.i52 = icmp eq i32 %87, 0
  br i1 %.not.i52, label %lean_dec.exit34, label %92

92:                                               ; preds = %91
  tail call void @lean_dec_ref_cold(ptr noundef nonnull %55) #8
  br label %lean_dec.exit34

lean_dec.exit34:                                  ; preds = %92, %91, %89, %lean_dec.exit35
  %93 = tail call ptr @lean_apply_3(ptr noundef %3, ptr noundef %6, ptr noundef %85, ptr noundef %2) #8
  br label %111

94:                                               ; preds = %lean_inc.exit
  %95 = load i32, ptr %55, align 4, !tbaa !4
  %96 = icmp sgt i32 %95, 1
  br i1 %96, label %97, label %99, !prof !9

97:                                               ; preds = %94
  %98 = add nsw i32 %95, -1
  store i32 %98, ptr %55, align 4, !tbaa !4
  br label %lean_dec.exit33

99:                                               ; preds = %94
  %.not.i54 = icmp eq i32 %95, 0
  br i1 %.not.i54, label %lean_dec.exit33, label %100

100:                                              ; preds = %99
  tail call void @lean_dec_ref_cold(ptr noundef nonnull %55) #8
  br label %lean_dec.exit33

lean_dec.exit33:                                  ; preds = %lean_inc.exit.thread, %100, %99, %97
  %101 = ptrtoint ptr %3 to i64
  %102 = and i64 %101, 1
  %.not64 = icmp eq i64 %102, 0
  br i1 %.not64, label %103, label %lean_dec.exit

103:                                              ; preds = %lean_dec.exit33
  %104 = load i32, ptr %3, align 4, !tbaa !4
  %105 = icmp sgt i32 %104, 1
  br i1 %105, label %106, label %108, !prof !9

106:                                              ; preds = %103
  %107 = add nsw i32 %104, -1
  store i32 %107, ptr %3, align 4, !tbaa !4
  br label %lean_dec.exit

108:                                              ; preds = %103
  %.not.i56 = icmp eq i32 %104, 0
  br i1 %.not.i56, label %lean_dec.exit, label %109

109:                                              ; preds = %108
  tail call void @lean_dec_ref_cold(ptr noundef nonnull %3) #8
  br label %lean_dec.exit

lean_dec.exit:                                    ; preds = %109, %108, %106, %lean_dec.exit33
  %110 = tail call ptr @lean_apply_2(ptr noundef %4, ptr noundef %6, ptr noundef %2) #8
  br label %111

111:                                              ; preds = %lean_dec.exit34, %lean_dec.exit, %lean_dec.exit38
  %.0 = phi ptr [ %44, %lean_dec.exit38 ], [ %93, %lean_dec.exit34 ], [ %110, %lean_dec.exit ]
  ret ptr %.0
}